target datalayout = "e-m:e-p270:32:32-p271:32:32-p272:64:64-i64:64-i128:128-f80:128-n8:16:32:64-S128"
target triple = "x86_64-pc-linux-gnu"

; Function Attrs: nounwind uwtable
define internal double @blue_filter(double noundef %0, ptr noundef %1) #1 {
  %3 = alloca double, align 8
  %4 = alloca ptr, align 8
  %5 = alloca double, align 8
  store double %0, ptr %3, align 8, !tbaa !44
  store ptr %1, ptr %4, align 8, !tbaa !42
  call void @llvm.lifetime.start.p0(i64 8, ptr %5) #7
  %6 = load double, ptr %3, align 8, !tbaa !44
  %7 = load ptr, ptr %4, align 8, !tbaa !42
  %8 = getelementptr inbounds double, ptr %7, i64 0
  %9 = load double, ptr %8, align 8, !tbaa !44
  %10 = fmul nsz double 0x3FEFF6A93F290ABB, %9
  %11 = fneg nsz double %10
  %12 = call nsz double @llvm.fmuladd.f64(double 5.551790e-02, double %6, double %11)
  %13 = load ptr, ptr %4, align 8, !tbaa !42
  %14 = getelementptr inbounds double, ptr %13, i64 0
  store double %12, ptr %14, align 8, !tbaa !44
  %15 = load double, ptr %3, align 8, !tbaa !44
  %16 = load ptr, ptr %4, align 8, !tbaa !42
  %17 = getelementptr inbounds double, ptr %16, i64 1
  %18 = load double, ptr %17, align 8, !tbaa !44
  %19 = fmul nsz double 0x3FEFC947064ECE9A, %18
  %20 = fneg nsz double %19
  %21 = call nsz double @llvm.fmuladd.f64(double 7.507590e-02, double %15, double %20)
  %22 = load ptr, ptr %4, align 8, !tbaa !42
  %23 = getelementptr inbounds double, ptr %22, i64 1
  store double %21, ptr %23, align 8, !tbaa !44
  %24 = load double, ptr %3, align 8, !tbaa !44
  %25 = load ptr, ptr %4, align 8, !tbaa !42
  %26 = getelementptr inbounds double, ptr %25, i64 2
  %27 = load double, ptr %26, align 8, !tbaa !44
  %28 = fmul nsz double 0x3FEF020C49BA5E35, %27
  %29 = fneg nsz double %28
  %30 = call nsz double @llvm.fmuladd.f64(double 1.538520e-01, double %24, double %29)
  %31 = load ptr, ptr %4, align 8, !tbaa !42
  %32 = getelementptr inbounds double, ptr %31, i64 2
  store double %30, ptr %32, align 8, !tbaa !44
  %33 = load double, ptr %3, align 8, !tbaa !44
  %34 = load ptr, ptr %4, align 8, !tbaa !42
  %35 = getelementptr inbounds double, ptr %34, i64 3
  %36 = load double, ptr %35, align 8, !tbaa !44
  %37 = fmul nsz double 8.665000e-01, %36
  %38 = fneg nsz double %37
  %39 = call nsz double @llvm.fmuladd.f64(double 0x3FD3DEFEFE784083, double %33, double %38)
  %40 = load ptr, ptr %4, align 8, !tbaa !42
  %41 = getelementptr inbounds double, ptr %40, i64 3
  store double %39, ptr %41, align 8, !tbaa !44
  %42 = load double, ptr %3, align 8, !tbaa !44
  %43 = load ptr, ptr %4, align 8, !tbaa !42
  %44 = getelementptr inbounds double, ptr %43, i64 4
  %45 = load double, ptr %44, align 8, !tbaa !44
  %46 = fmul nsz double 5.500000e-01, %45
  %47 = fneg nsz double %46
  %48 = call nsz double @llvm.fmuladd.f64(double 0x3FE10DF1C5AA999C, double %42, double %47)
  %49 = load ptr, ptr %4, align 8, !tbaa !42
  %50 = getelementptr inbounds double, ptr %49, i64 4
  store double %48, ptr %50, align 8, !tbaa !44
  %51 = load double, ptr %3, align 8, !tbaa !44
  %52 = load ptr, ptr %4, align 8, !tbaa !42
  %53 = getelementptr inbounds double, ptr %52, i64 5
  %54 = load double, ptr %53, align 8, !tbaa !44
  %55 = fmul nsz double 7.616000e-01, %54
  %56 = call nsz double @llvm.fmuladd.f64(double -1.689800e-02, double %51, double %55)
  %57 = load ptr, ptr %4, align 8, !tbaa !42
  %58 = getelementptr inbounds double, ptr %57, i64 5
  store double %56, ptr %58, align 8, !tbaa !44
  %59 = load ptr, ptr %4, align 8, !tbaa !42
  %60 = getelementptr inbounds double, ptr %59, i64 0
  %61 = load double, ptr %60, align 8, !tbaa !44
  %62 = load ptr, ptr %4, align 8, !tbaa !42
  %63 = getelementptr inbounds double, ptr %62, i64 1
  %64 = load double, ptr %63, align 8, !tbaa !44
  %65 = fadd nsz double %61, %64
  %66 = load ptr, ptr %4, align 8, !tbaa !42
  %67 = getelementptr inbounds double, ptr %66, i64 2
  %68 = load double, ptr %67, align 8, !tbaa !44
  %69 = fadd nsz double %65, %68
  %70 = load ptr, ptr %4, align 8, !tbaa !42
  %71 = getelementptr inbounds double, ptr %70, i64 3
  %72 = load double, ptr %71, align 8, !tbaa !44
  %73 = fadd nsz double %69, %72
  %74 = load ptr, ptr %4, align 8, !tbaa !42
  %75 = getelementptr inbounds double, ptr %74, i64 4
  %76 = load double, ptr %75, align 8, !tbaa !44
  %77 = fadd nsz double %73, %76
  %78 = load ptr, ptr %4, align 8, !tbaa !42
  %79 = getelementptr inbounds double, ptr %78, i64 5
  %80 = load double, ptr %79, align 8, !tbaa !44
  %81 = fadd nsz double %77, %80
  %82 = load ptr, ptr %4, align 8, !tbaa !42
  %83 = getelementptr inbounds double, ptr %82, i64 6
  %84 = load double, ptr %83, align 8, !tbaa !44
  %85 = fadd nsz double %81, %84
  %86 = load double, ptr %3, align 8, !tbaa !44
  %87 = call nsz double @llvm.fmuladd.f64(double %86, double 5.362000e-01, double %85)
  store double %87, ptr %5, align 8, !tbaa !44
  %88 = load double, ptr %3, align 8, !tbaa !44
  %89 = fmul nsz double %88, 1.159260e-01
  %90 = load ptr, ptr %4, align 8, !tbaa !42
  %91 = getelementptr inbounds double, ptr %90, i64 6
  store double %89, ptr %91, align 8, !tbaa !44
  %92 = load double, ptr %5, align 8, !tbaa !44
  %93 = fmul nsz double %92, 1.100000e-01
  call void @llvm.lifetime.end.p0(i64 8, ptr %5) #7
  ret double %93
}