; Function Attrs: mustprogress nofree norecurse nosync nounwind willreturn memory(argmem: readwrite) uwtable
define internal double @blue_filter(double noundef %0, ptr noundef captures(none) %1) #6 {
  %3 = load double, ptr %1, align 8, !tbaa !37
  %4 = fmul nsz double %3, 0xBFEFF6A93F290ABB
  %5 = tail call nsz double @llvm.fmuladd.f64(double %0, double 5.551790e-02, double %4)
  store double %5, ptr %1, align 8, !tbaa !37
  %6 = getelementptr inbounds nuw i8, ptr %1, i64 8
  %7 = load double, ptr %6, align 8, !tbaa !37
  %8 = fmul nsz double %7, 0xBFEFC947064ECE9A
  %9 = tail call nsz double @llvm.fmuladd.f64(double %0, double 7.507590e-02, double %8)
  store double %9, ptr %6, align 8, !tbaa !37
  %10 = getelementptr inbounds nuw i8, ptr %1, i64 16
  %11 = load double, ptr %10, align 8, !tbaa !37
  %12 = fmul nsz double %11, 0xBFEF020C49BA5E35
  %13 = tail call nsz double @llvm.fmuladd.f64(double %0, double 1.538520e-01, double %12)
  store double %13, ptr %10, align 8, !tbaa !37
  %14 = getelementptr inbounds nuw i8, ptr %1, i64 24
  %15 = load double, ptr %14, align 8, !tbaa !37
  %16 = fmul nsz double %15, -8.665000e-01
  %17 = tail call nsz double @llvm.fmuladd.f64(double %0, double 0x3FD3DEFEFE784083, double %16)
  store double %17, ptr %14, align 8, !tbaa !37
  %18 = getelementptr inbounds nuw i8, ptr %1, i64 32
  %19 = load double, ptr %18, align 8, !tbaa !37
  %20 = fmul nsz double %19, -5.500000e-01
  %21 = tail call nsz double @llvm.fmuladd.f64(double %0, double 0x3FE10DF1C5AA999C, double %20)
  store double %21, ptr %18, align 8, !tbaa !37
  %22 = getelementptr inbounds nuw i8, ptr %1, i64 40
  %23 = load double, ptr %22, align 8, !tbaa !37
  %24 = fmul nsz double %23, 7.616000e-01
  %25 = tail call nsz double @llvm.fmuladd.f64(double %0, double -1.689800e-02, double %24)
  store double %25, ptr %22, align 8, !tbaa !37
  %26 = fadd nsz double %5, %9
  %27 = fadd nsz double %26, %13
  %28 = fadd nsz double %27, %17
  %29 = fadd nsz double %28, %21
  %30 = fadd nsz double %29, %25
  %31 = getelementptr inbounds nuw i8, ptr %1, i64 48
  %32 = load double, ptr %31, align 8, !tbaa !37
  %33 = fadd nsz double %32, %30
  %34 = tail call nsz double @llvm.fmuladd.f64(double %0, double 5.362000e-01, double %33)
  %35 = fmul nsz double %0, 1.159260e-01
  store double %35, ptr %31, align 8, !tbaa !37
  %36 = fmul nsz double %34, 1.100000e-01
  ret double %36
}